; Function Attrs: mustprogress uwtable
define void @_ZN7Imf_3_413loadFlatImageERKNSt7__cxx1112basic_stringIcSt11char_traitsIcESaIcEEERNS_9FlatImageE(ptr noundef nonnull readonly align 8 captures(none) dereferenceable(32) %0, ptr noundef nonnull align 8 dereferenceable(104) %1) local_unnamed_addr #3 personality ptr @__gxx_personality_v0 {
  %3 = alloca %"class.Imf_3_4::Header", align 8
  %4 = alloca %"class.Imath_3_2::Vec2.9", align 4
  call void @llvm.lifetime.start.p0(i64 56, ptr nonnull %3) #17
  call void @llvm.lifetime.start.p0(i64 8, ptr nonnull %4) #17
  store float 0.000000e+00, ptr %4, align 4, !tbaa !3
  %5 = getelementptr inbounds nuw i8, ptr %4, i64 4
  store float 0.000000e+00, ptr %5, align 4, !tbaa !8
  call void @_ZN7Imf_3_46HeaderC1EiifRKN9Imath_3_24Vec2IfEEfNS_9LineOrderENS_11CompressionE(ptr noundef nonnull align 8 dereferenceable(49) %3, i32 noundef 64, i32 noundef 64, float noundef 1.000000e+00, ptr noundef nonnull align 4 dereferenceable(8) %4, float noundef 1.000000e+00, i32 noundef 0, i32 noundef 3)
  call void @llvm.lifetime.end.p0(i64 8, ptr nonnull %4) #17
  invoke void @_ZN7Imf_3_413loadFlatImageERKNSt7__cxx1112basic_stringIcSt11char_traitsIcESaIcEEERNS_6HeaderERNS_9FlatImageE(ptr noundef nonnull align 8 dereferenceable(32) %0, ptr noundef nonnull align 8 dereferenceable(49) %3, ptr noundef nonnull align 8 dereferenceable(104) %1)
          to label %6 unwind label %7

6:                                                ; preds = %2
  call void @_ZN7Imf_3_46HeaderD1Ev(ptr noundef nonnull align 8 dereferenceable(49) %3) #17
  call void @llvm.lifetime.end.p0(i64 56, ptr nonnull %3) #17
  ret void

7:                                                ; preds = %2
  %8 = landingpad { ptr, i32 }
          cleanup
  call void @_ZN7Imf_3_46HeaderD1Ev(ptr noundef nonnull align 8 dereferenceable(49) %3) #17
  call void @llvm.lifetime.end.p0(i64 56, ptr nonnull %3) #17
  resume { ptr, i32 } %8
}